
blinker01.elf:     file format elf32-littlearm


Disassembly of section .text:

00008000 <_start>:
    8000:	e3a0d902 	mov	sp, #32768	; 0x8000
    8004:	eb000030 	bl	80cc <notmain>

00008008 <hang>:
    8008:	eafffffe 	b	8008 <hang>

0000800c <PUT32>:
    800c:	e5801000 	str	r1, [r0]
    8010:	e12fff1e 	bx	lr

00008014 <GET32>:
    8014:	e5900000 	ldr	r0, [r0]
    8018:	e12fff1e 	bx	lr

0000801c <dummy>:
    801c:	e12fff1e 	bx	lr

00008020 <sleepMicros>:
    8020:	e59f1024 	ldr	r1, [pc, #36]	; 804c <sleepMicros+0x2c>
    8024:	e5913004 	ldr	r3, [r1, #4]
    8028:	e24dd008 	sub	sp, sp, #8
    802c:	e58d3004 	str	r3, [sp, #4]
    8030:	e5912004 	ldr	r2, [r1, #4]
    8034:	e59d3004 	ldr	r3, [sp, #4]
    8038:	e0633002 	rsb	r3, r3, r2
    803c:	e1530000 	cmp	r3, r0
    8040:	3afffffa 	bcc	8030 <sleepMicros+0x10>
    8044:	e28dd008 	add	sp, sp, #8
    8048:	e12fff1e 	bx	lr
    804c:	20003000 	andcs	r3, r0, r0

00008050 <sleepMillis>:
    8050:	e59f1030 	ldr	r1, [pc, #48]	; 8088 <sleepMillis+0x38>
    8054:	e5913004 	ldr	r3, [r1, #4]
    8058:	e24dd008 	sub	sp, sp, #8
    805c:	e0602280 	rsb	r2, r0, r0, lsl #5
    8060:	e0800102 	add	r0, r0, r2, lsl #2
    8064:	e58d3004 	str	r3, [sp, #4]
    8068:	e1a00180 	lsl	r0, r0, #3
    806c:	e5912004 	ldr	r2, [r1, #4]
    8070:	e59d3004 	ldr	r3, [sp, #4]
    8074:	e0633002 	rsb	r3, r3, r2
    8078:	e1500003 	cmp	r0, r3
    807c:	8afffffa 	bhi	806c <sleepMillis+0x1c>
    8080:	e28dd008 	add	sp, sp, #8
    8084:	e12fff1e 	bx	lr
    8088:	20003000 	andcs	r3, r0, r0

0000808c <sleepSeconds>:
    808c:	e59f1034 	ldr	r1, [pc, #52]	; 80c8 <sleepSeconds+0x3c>
    8090:	e0603280 	rsb	r3, r0, r0, lsl #5
    8094:	e5912004 	ldr	r2, [r1, #4]
    8098:	e24dd008 	sub	sp, sp, #8
    809c:	e0633303 	rsb	r3, r3, r3, lsl #6
    80a0:	e0800183 	add	r0, r0, r3, lsl #3
    80a4:	e58d2004 	str	r2, [sp, #4]
    80a8:	e1a00300 	lsl	r0, r0, #6
    80ac:	e5912004 	ldr	r2, [r1, #4]
    80b0:	e59d3004 	ldr	r3, [sp, #4]
    80b4:	e0633002 	rsb	r3, r3, r2
    80b8:	e1500003 	cmp	r0, r3
    80bc:	8afffffa 	bhi	80ac <sleepSeconds+0x20>
    80c0:	e28dd008 	add	sp, sp, #8
    80c4:	e12fff1e 	bx	lr
    80c8:	20003000 	andcs	r3, r0, r0

000080cc <notmain>:
    80cc:	e92d4038 	push	{r3, r4, r5, lr}
    80d0:	e59f3038 	ldr	r3, [pc, #56]	; 8110 <notmain+0x44>
    80d4:	e5932000 	ldr	r2, [r3]
    80d8:	e59f4034 	ldr	r4, [pc, #52]	; 8114 <notmain+0x48>
    80dc:	e3822a01 	orr	r2, r2, #4096	; 0x1000
    80e0:	e5843000 	str	r3, [r4]
    80e4:	e5832000 	str	r2, [r3]
    80e8:	e3a05010 	mov	r5, #16
    80ec:	e5835028 	str	r5, [r3, #40]	; 0x28
    80f0:	e3a00001 	mov	r0, #1
    80f4:	ebffffe4 	bl	808c <sleepSeconds>
    80f8:	e5943000 	ldr	r3, [r4]
    80fc:	e3a00001 	mov	r0, #1
    8100:	e583501c 	str	r5, [r3, #28]
    8104:	ebffffe0 	bl	808c <sleepSeconds>
    8108:	e5943000 	ldr	r3, [r4]
    810c:	eafffff6 	b	80ec <notmain+0x20>
    8110:	20200000 	eorcs	r0, r0, r0
    8114:	0000811c 	andeq	r8, r0, ip, lsl r1

Disassembly of section .bss:

00008118 <tim>:
    8118:	00000000 	andeq	r0, r0, r0

0000811c <gpio>:
    811c:	00000000 	andeq	r0, r0, r0

Disassembly of section .ARM.attributes:

00000000 <.ARM.attributes>:
   0:	00002a41 	andeq	r2, r0, r1, asr #20
   4:	61656100 	cmnvs	r5, r0, lsl #2
   8:	01006962 	tsteq	r0, r2, ror #18
   c:	00000020 	andeq	r0, r0, r0, lsr #32
  10:	4d524105 	ldfmie	f4, [r2, #-20]	; 0xffffffec
  14:	54347620 	ldrtpl	r7, [r4], #-1568	; 0x620
  18:	08020600 	stmdaeq	r2, {r9, sl}
  1c:	12010901 	andne	r0, r1, #16384	; 0x4000
  20:	15011404 	strne	r1, [r1, #-1028]	; 0x404
  24:	18031701 	stmdane	r3, {r0, r8, r9, sl, ip}
  28:	Address 0x0000000000000028 is out of bounds.


Disassembly of section .comment:

00000000 <.comment>:
   0:	3a434347 	bcc	10d0d24 <gpio+0x10c8c08>
   4:	4e472820 	cdpmi	8, 4, cr2, cr7, cr0, {1}
   8:	34202955 	strtcc	r2, [r0], #-2389	; 0x955
   c:	322e372e 	eorcc	r3, lr, #12058624	; 0xb80000
	...
